; Function Attrs: nounwind uwtable
define range(i32 0, 2) i32 @Res_WinComputeRoots(ptr noundef readonly captures(none) %0) local_unnamed_addr #2 {
  %2 = getelementptr inbounds nuw i8, ptr %0, i64 40
  %3 = load ptr, ptr %2, align 8
  %4 = getelementptr inbounds nuw i8, ptr %3, i64 4
  store i32 0, ptr %4, align 4
  %5 = load ptr, ptr %0, align 8
  %6 = load ptr, ptr %5, align 8
  %7 = getelementptr inbounds nuw i8, ptr %6, i64 232
  %8 = load ptr, ptr %7, align 8
  %.not.i = icmp eq ptr %8, null
  br i1 %.not.i, label %9, label %Abc_NtkIncrementTravId.exit

9:                                                ; preds = %1
  %10 = getelementptr inbounds nuw i8, ptr %6, i64 224
  %11 = getelementptr i8, ptr %6, i64 32
  %.val.i = load ptr, ptr %11, align 8
  %12 = getelementptr i8, ptr %.val.i, i64 4
  %.val.val.i = load i32, ptr %12, align 4
  %13 = add nsw i32 %.val.val.i, 500
  %14 = load i32, ptr %10, align 8
  %.not.i.i.i = icmp slt i32 %14, %13
  br i1 %.not.i.i.i, label %15, label %Vec_IntGrow.exit.i.i

15:                                               ; preds = %9
  %16 = sext i32 %13 to i64
  %17 = shl nsw i64 %16, 2
  %18 = tail call noalias ptr @malloc(i64 noundef %17) #8
  store ptr %18, ptr %7, align 8
  store i32 %13, ptr %10, align 8
  br label %Vec_IntGrow.exit.i.i

Vec_IntGrow.exit.i.i:                             ; preds = %15, %9
  %19 = icmp sgt i32 %.val.val.i, -500
  br i1 %19, label %.lr.ph.i.i, label %Vec_IntFill.exit.i

.lr.ph.i.i:                                       ; preds = %Vec_IntGrow.exit.i.i
  %wide.trip.count.i.i = zext nneg i32 %13 to i64
  br label %20

20:                                               ; preds = %20, %.lr.ph.i.i
  %indvars.iv.i.i = phi i64 [ 0, %.lr.ph.i.i ], [ %indvars.iv.next.i.i, %20 ]
  %21 = load ptr, ptr %7, align 8
  %22 = getelementptr inbounds nuw i32, ptr %21, i64 %indvars.iv.i.i
  store i32 0, ptr %22, align 4
  %indvars.iv.next.i.i = add nuw nsw i64 %indvars.iv.i.i, 1
  %exitcond.not.i.i = icmp eq i64 %indvars.iv.next.i.i, %wide.trip.count.i.i
  br i1 %exitcond.not.i.i, label %Vec_IntFill.exit.i, label %20, !llvm.loop !8

Vec_IntFill.exit.i:                               ; preds = %20, %Vec_IntGrow.exit.i.i
  %23 = getelementptr inbounds nuw i8, ptr %6, i64 228
  store i32 %13, ptr %23, align 4
  br label %Abc_NtkIncrementTravId.exit

Abc_NtkIncrementTravId.exit:                      ; preds = %1, %Vec_IntFill.exit.i
  %24 = getelementptr inbounds nuw i8, ptr %6, i64 216
  %25 = load i32, ptr %24, align 8
  %26 = add nsw i32 %25, 1
  store i32 %26, ptr %24, align 8
  %27 = load ptr, ptr %0, align 8
  %28 = getelementptr inbounds nuw i8, ptr %27, i64 20
  %29 = load i32, ptr %28, align 4
  %30 = lshr i32 %29, 12
  %31 = getelementptr inbounds nuw i8, ptr %0, i64 12
  %32 = load i32, ptr %31, align 4
  %33 = add nsw i32 %30, %32
  %34 = getelementptr inbounds nuw i8, ptr %0, i64 20
  %35 = load i32, ptr %34, align 4
  %36 = load ptr, ptr %2, align 8
  tail call void @Res_WinComputeRoots_rec(ptr noundef %27, i32 noundef %33, i32 noundef %35, ptr noundef %36)
  %37 = load ptr, ptr %2, align 8
  %38 = getelementptr i8, ptr %37, i64 4
  %.val = load i32, ptr %38, align 4
  %39 = icmp eq i32 %.val, 1
  br i1 %39, label %40, label %45

40:                                               ; preds = %Abc_NtkIncrementTravId.exit
  %41 = getelementptr i8, ptr %37, i64 8
  %.val10 = load ptr, ptr %41, align 8
  %42 = load ptr, ptr %.val10, align 8
  %43 = load ptr, ptr %0, align 8
  %44 = icmp eq ptr %42, %43
  br i1 %44, label %46, label %45

45:                                               ; preds = %40, %Abc_NtkIncrementTravId.exit
  br label %46

46:                                               ; preds = %40, %45
  %.0 = phi i32 [ 1, %45 ], [ 0, %40 ]
  ret i32 %.0
}